; Function Attrs: mustprogress uwtable
define hidden void @_ZNK4cvc58internal6theory2fp14symfpuSymbolic17symbolicBitVectorILb0EE6extendEj(ptr dead_on_unwind noalias writable writeonly sret(%"class.cvc5::internal::theory::fp::symfpuSymbolic::symbolicBitVector") align 8 captures(none) %0, ptr noundef nonnull readonly align 8 captures(none) dereferenceable(8) %1, i32 noundef %2) local_unnamed_addr #3 align 2 personality ptr @__gxx_personality_v0 {
  %4 = alloca %"class.cvc5::internal::NodeBuilder", align 8
  %5 = alloca %"class.cvc5::internal::NodeTemplate.0", align 8
  %6 = alloca %"class.cvc5::internal::NodeTemplate", align 8
  %7 = alloca %"struct.cvc5::internal::BitVectorZeroExtend", align 4
  %8 = alloca %"class.cvc5::internal::NodeTemplate.0", align 8
  %9 = alloca %"class.cvc5::internal::NodeTemplate", align 8
  call void @llvm.lifetime.start.p0(i64 128, ptr nonnull %4) #23
  %10 = load ptr, ptr %1, align 8, !tbaa !22
  %11 = getelementptr inbounds nuw i8, ptr %10, i64 16
  %12 = load ptr, ptr %11, align 8, !tbaa !46
  call void @_ZN4cvc58internal11NodeBuilderC1EPNS0_11NodeManagerENS0_4kind6Kind_tE(ptr noundef nonnull align 8 dereferenceable(124) %4, ptr noundef %12, i32 noundef 150)
  call void @llvm.lifetime.start.p0(i64 8, ptr nonnull %6) #23
  %13 = load ptr, ptr %1, align 8, !tbaa !22
  %14 = getelementptr inbounds nuw i8, ptr %13, i64 16
  %15 = load ptr, ptr %14, align 8, !tbaa !46
  call void @llvm.lifetime.start.p0(i64 4, ptr nonnull %7) #23
  store i32 %2, ptr %7, align 4, !tbaa !103
  invoke void @_ZN4cvc58internal11NodeManager7mkConstINS0_19BitVectorZeroExtendEEENS0_12NodeTemplateILb1EEERKT_(ptr dead_on_unwind nonnull writable sret(%"class.cvc5::internal::NodeTemplate") align 8 %6, ptr noundef nonnull align 8 dereferenceable(3560) %15, ptr noundef nonnull align 4 dereferenceable(4) %7)
          to label %16 unwind label %65

16:                                               ; preds = %3
  %17 = load ptr, ptr %6, align 8, !tbaa !22
  store ptr %17, ptr %5, align 8, !tbaa !28
  %18 = invoke noundef nonnull align 8 dereferenceable(124) ptr @_ZN4cvc58internal11NodeBuilderlsENS0_12NodeTemplateILb0EEE(ptr noundef nonnull align 8 dereferenceable(124) %4, ptr noundef nonnull %5)
          to label %19 unwind label %67

19:                                               ; preds = %16
  %20 = load ptr, ptr %1, align 8, !tbaa !22
  store ptr %20, ptr %8, align 8, !tbaa !28
  %21 = invoke noundef nonnull align 8 dereferenceable(124) ptr @_ZN4cvc58internal11NodeBuilderlsENS0_12NodeTemplateILb0EEE(ptr noundef nonnull align 8 dereferenceable(124) %18, ptr noundef nonnull %8)
          to label %22 unwind label %69

22:                                               ; preds = %19
  %23 = load ptr, ptr %6, align 8, !tbaa !22
  %24 = load i64, ptr %23, align 8
  %25 = and i64 %24, 1152920405095219200
  %.not.i.i = icmp eq i64 %25, 1152920405095219200
  br i1 %.not.i.i, label %_ZN4cvc58internal12NodeTemplateILb1EED2Ev.exit, label %26, !prof !9

26:                                               ; preds = %22
  %27 = add i64 %24, 1152920405095219200
  %28 = and i64 %27, 1152920405095219200
  %29 = and i64 %24, -1152920405095219201
  %30 = or disjoint i64 %28, %29
  store i64 %30, ptr %23, align 8
  %31 = icmp eq i64 %28, 0
  br i1 %31, label %32, label %_ZN4cvc58internal12NodeTemplateILb1EED2Ev.exit, !prof !9

32:                                               ; preds = %26
  invoke void @_ZN4cvc58internal4expr9NodeValue15markForDeletionEv(ptr noundef nonnull align 8 dereferenceable(24) %23)
          to label %_ZN4cvc58internal12NodeTemplateILb1EED2Ev.exit unwind label %33

33:                                               ; preds = %32
  %34 = landingpad { ptr, i32 }
          catch ptr null
  %35 = extractvalue { ptr, i32 } %34, 0
  call void @__clang_call_terminate(ptr %35) #24
  unreachable

_ZN4cvc58internal12NodeTemplateILb1EED2Ev.exit:   ; preds = %22, %26, %32
  call void @llvm.lifetime.end.p0(i64 4, ptr nonnull %7) #23
  call void @llvm.lifetime.end.p0(i64 8, ptr nonnull %6) #23
  invoke void @_ZN4cvc58internal11NodeBuildercvNS0_12NodeTemplateILb1EEEEv(ptr dead_on_unwind nonnull writable sret(%"class.cvc5::internal::NodeTemplate") align 8 %9, ptr noundef nonnull align 8 dereferenceable(124) %4)
          to label %36 unwind label %73

36:                                               ; preds = %_ZN4cvc58internal12NodeTemplateILb1EED2Ev.exit
  %37 = load ptr, ptr %9, align 8, !tbaa !22
  store ptr %37, ptr %0, align 8, !tbaa !22
  %38 = load i64, ptr %37, align 8
  %39 = lshr i64 %38, 40
  %40 = trunc nuw nsw i64 %39 to i32
  %41 = and i32 %40, 1048575
  %42 = icmp samesign ult i32 %41, 1048574
  br i1 %42, label %43, label %48, !prof !24

43:                                               ; preds = %36
  %44 = add i64 %38, 1099511627776
  %45 = and i64 %44, 1152920405095219200
  %46 = and i64 %38, -1152920405095219201
  %47 = or disjoint i64 %45, %46
  store i64 %47, ptr %37, align 8
  br label %_ZN4cvc58internal6theory2fp14symfpuSymbolic17symbolicBitVectorILb0EEC2ENS0_12NodeTemplateILb1EEE.exit

48:                                               ; preds = %36
  %49 = icmp eq i32 %41, 1048574
  br i1 %49, label %50, label %_ZN4cvc58internal6theory2fp14symfpuSymbolic17symbolicBitVectorILb0EEC2ENS0_12NodeTemplateILb1EEE.exit, !prof !9

50:                                               ; preds = %48
  %51 = or i64 %38, 1152920405095219200
  store i64 %51, ptr %37, align 8
  invoke void @_ZN4cvc58internal4expr9NodeValue20markRefCountMaxedOutEv(ptr noundef nonnull align 8 dereferenceable(24) %37)
          to label %_ZN4cvc58internal6theory2fp14symfpuSymbolic17symbolicBitVectorILb0EEC2ENS0_12NodeTemplateILb1EEE.exit unwind label %75

_ZN4cvc58internal6theory2fp14symfpuSymbolic17symbolicBitVectorILb0EEC2ENS0_12NodeTemplateILb1EEE.exit: ; preds = %48, %43, %50
  %52 = load ptr, ptr %9, align 8, !tbaa !22
  %53 = load i64, ptr %52, align 8
  %54 = and i64 %53, 1152920405095219200
  %.not.i.i12 = icmp eq i64 %54, 1152920405095219200
  br i1 %.not.i.i12, label %_ZN4cvc58internal12NodeTemplateILb1EED2Ev.exit13, label %55, !prof !9

55:                                               ; preds = %_ZN4cvc58internal6theory2fp14symfpuSymbolic17symbolicBitVectorILb0EEC2ENS0_12NodeTemplateILb1EEE.exit
  %56 = add i64 %53, 1152920405095219200
  %57 = and i64 %56, 1152920405095219200
  %58 = and i64 %53, -1152920405095219201
  %59 = or disjoint i64 %57, %58
  store i64 %59, ptr %52, align 8
  %60 = icmp eq i64 %57, 0
  br i1 %60, label %61, label %_ZN4cvc58internal12NodeTemplateILb1EED2Ev.exit13, !prof !9

61:                                               ; preds = %55
  invoke void @_ZN4cvc58internal4expr9NodeValue15markForDeletionEv(ptr noundef nonnull align 8 dereferenceable(24) %52)
          to label %_ZN4cvc58internal12NodeTemplateILb1EED2Ev.exit13 unwind label %62

62:                                               ; preds = %61
  %63 = landingpad { ptr, i32 }
          catch ptr null
  %64 = extractvalue { ptr, i32 } %63, 0
  call void @__clang_call_terminate(ptr %64) #24
  unreachable

_ZN4cvc58internal12NodeTemplateILb1EED2Ev.exit13: ; preds = %_ZN4cvc58internal6theory2fp14symfpuSymbolic17symbolicBitVectorILb0EEC2ENS0_12NodeTemplateILb1EEE.exit, %55, %61
  call void @_ZN4cvc58internal11NodeBuilderD1Ev(ptr noundef nonnull align 8 dereferenceable(124) %4) #23
  call void @llvm.lifetime.end.p0(i64 128, ptr nonnull %4) #23
  ret void

65:                                               ; preds = %3
  %66 = landingpad { ptr, i32 }
          cleanup
  br label %72

67:                                               ; preds = %16
  %68 = landingpad { ptr, i32 }
          cleanup
  br label %71

69:                                               ; preds = %19
  %70 = landingpad { ptr, i32 }
          cleanup
  br label %71

71:                                               ; preds = %69, %67
  %.pn = phi { ptr, i32 } [ %70, %69 ], [ %68, %67 ]
  call void @_ZN4cvc58internal12NodeTemplateILb1EED2Ev(ptr noundef nonnull align 8 dereferenceable(8) %6) #23
  br label %72

72:                                               ; preds = %71, %65
  %.pn.pn = phi { ptr, i32 } [ %.pn, %71 ], [ %66, %65 ]
  call void @llvm.lifetime.end.p0(i64 4, ptr nonnull %7) #23
  call void @llvm.lifetime.end.p0(i64 8, ptr nonnull %6) #23
  br label %77

73:                                               ; preds = %_ZN4cvc58internal12NodeTemplateILb1EED2Ev.exit
  %74 = landingpad { ptr, i32 }
          cleanup
  br label %77

75:                                               ; preds = %50
  %76 = landingpad { ptr, i32 }
          cleanup
  call void @_ZN4cvc58internal12NodeTemplateILb1EED2Ev(ptr noundef nonnull align 8 dereferenceable(8) %9) #23
  br label %77

77:                                               ; preds = %75, %73, %72
  %.pn10 = phi { ptr, i32 } [ %76, %75 ], [ %74, %73 ], [ %.pn.pn, %72 ]
  call void @_ZN4cvc58internal11NodeBuilderD1Ev(ptr noundef nonnull align 8 dereferenceable(124) %4) #23
  call void @llvm.lifetime.end.p0(i64 128, ptr nonnull %4) #23
  resume { ptr, i32 } %.pn10
}